target datalayout = "e-m:e-p270:32:32-p271:32:32-p272:64:64-i64:64-i128:128-f80:128-n8:16:32:64-S128"
target triple = "x86_64-pc-linux-gnu"

%struct.jpeg_decompress_struct = type { ptr, ptr, ptr, ptr, i32, i32, ptr, i32, i32, i32, i32, i32, i32, i32, double, i32, i32, i32, i32, i32, i32, i32, i32, i32, i32, i32, i32, i32, i32, i32, i32, i32, i32, ptr, i32, i32, i32, i32, i32, ptr, [4 x ptr], [4 x ptr], [4 x ptr], i32, ptr, i32, i32, [16 x i8], [16 x i8], [16 x i8], i32, i32, i8, i8, i8, i16, i16, i32, i8, i32, ptr, i32, i32, i32, i32, ptr, i32, [4 x ptr], i32, i32, i32, [10 x i32], i32, i32, i32, i32, i32, ptr, ptr, ptr, ptr, ptr, ptr, ptr, ptr, ptr, ptr, ptr }
%struct.ppm_dest_struct = type { %struct.djpeg_dest_struct, ptr, ptr, i64, i32 }
%struct.djpeg_dest_struct = type { ptr, ptr, ptr, ptr, ptr, ptr, ptr, ptr, i32 }

; Function Attrs: nounwind uwtable
define internal void @put_demapped_rgb(ptr noundef %0, ptr noundef %1, i32 noundef %2) #0 {
  %4 = alloca ptr, align 8
  %5 = alloca ptr, align 8
  %6 = alloca i32, align 4
  %7 = alloca ptr, align 8
  %8 = alloca ptr, align 8
  %9 = alloca i32, align 4
  %10 = alloca ptr, align 8
  %11 = alloca ptr, align 8
  %12 = alloca ptr, align 8
  %13 = alloca ptr, align 8
  %14 = alloca i32, align 4
  store ptr %0, ptr %4, align 8, !tbaa !4
  store ptr %1, ptr %5, align 8, !tbaa !61
  store i32 %2, ptr %6, align 4, !tbaa !68
  call void @llvm.lifetime.start.p0(i64 8, ptr %7) #6
  %15 = load ptr, ptr %5, align 8, !tbaa !61
  store ptr %15, ptr %7, align 8, !tbaa !42
  call void @llvm.lifetime.start.p0(i64 8, ptr %8) #6
  call void @llvm.lifetime.start.p0(i64 4, ptr %9) #6
  call void @llvm.lifetime.start.p0(i64 8, ptr %10) #6
  call void @llvm.lifetime.start.p0(i64 8, ptr %11) #6
  %16 = load ptr, ptr %4, align 8, !tbaa !4
  %17 = getelementptr inbounds nuw %struct.jpeg_decompress_struct, ptr %16, i32 0, i32 33
  %18 = load ptr, ptr %17, align 8, !tbaa !73
  %19 = getelementptr inbounds ptr, ptr %18, i64 0
  %20 = load ptr, ptr %19, align 8, !tbaa !69
  store ptr %20, ptr %11, align 8, !tbaa !69
  call void @llvm.lifetime.start.p0(i64 8, ptr %12) #6
  %21 = load ptr, ptr %4, align 8, !tbaa !4
  %22 = getelementptr inbounds nuw %struct.jpeg_decompress_struct, ptr %21, i32 0, i32 33
  %23 = load ptr, ptr %22, align 8, !tbaa !73
  %24 = getelementptr inbounds ptr, ptr %23, i64 1
  %25 = load ptr, ptr %24, align 8, !tbaa !69
  store ptr %25, ptr %12, align 8, !tbaa !69
  call void @llvm.lifetime.start.p0(i64 8, ptr %13) #6
  %26 = load ptr, ptr %4, align 8, !tbaa !4
  %27 = getelementptr inbounds nuw %struct.jpeg_decompress_struct, ptr %26, i32 0, i32 33
  %28 = load ptr, ptr %27, align 8, !tbaa !73
  %29 = getelementptr inbounds ptr, ptr %28, i64 2
  %30 = load ptr, ptr %29, align 8, !tbaa !69
  store ptr %30, ptr %13, align 8, !tbaa !69
  call void @llvm.lifetime.start.p0(i64 4, ptr %14) #6
  %31 = load ptr, ptr %7, align 8, !tbaa !42
  %32 = getelementptr inbounds nuw %struct.ppm_dest_struct, ptr %31, i32 0, i32 0
  %33 = getelementptr inbounds nuw %struct.djpeg_dest_struct, ptr %32, i32 0, i32 5
  %34 = load ptr, ptr %33, align 8, !tbaa !57
  %35 = getelementptr inbounds ptr, ptr %34, i64 0
  %36 = load ptr, ptr %35, align 8, !tbaa !69
  store ptr %36, ptr %10, align 8, !tbaa !69
  %37 = load ptr, ptr %7, align 8, !tbaa !42
  %38 = getelementptr inbounds nuw %struct.ppm_dest_struct, ptr %37, i32 0, i32 1
  %39 = load ptr, ptr %38, align 8, !tbaa !51
  store ptr %39, ptr %8, align 8, !tbaa !69
  %40 = load ptr, ptr %4, align 8, !tbaa !4
  %41 = getelementptr inbounds nuw %struct.jpeg_decompress_struct, ptr %40, i32 0, i32 27
  %42 = load i32, ptr %41, align 8, !tbaa !55
  store i32 %42, ptr %14, align 4, !tbaa !68
  br label %43

43:                                               ; preds = %72, %3
  %44 = load i32, ptr %14, align 4, !tbaa !68
  %45 = icmp ugt i32 %44, 0
  br i1 %45, label %46, label %75

46:                                               ; preds = %43
  %47 = load ptr, ptr %10, align 8, !tbaa !69
  %48 = getelementptr inbounds nuw i8, ptr %47, i32 1
  store ptr %48, ptr %10, align 8, !tbaa !69
  %49 = load i8, ptr %47, align 1, !tbaa !37
  %50 = zext i8 %49 to i32
  store i32 %50, ptr %9, align 4, !tbaa !68
  %51 = load ptr, ptr %11, align 8, !tbaa !69
  %52 = load i32, ptr %9, align 4, !tbaa !68
  %53 = sext i32 %52 to i64
  %54 = getelementptr inbounds i8, ptr %51, i64 %53
  %55 = load i8, ptr %54, align 1, !tbaa !37
  %56 = load ptr, ptr %8, align 8, !tbaa !69
  %57 = getelementptr inbounds nuw i8, ptr %56, i32 1
  store ptr %57, ptr %8, align 8, !tbaa !69
  store i8 %55, ptr %56, align 1, !tbaa !37
  %58 = load ptr, ptr %12, align 8, !tbaa !69
  %59 = load i32, ptr %9, align 4, !tbaa !68
  %60 = sext i32 %59 to i64
  %61 = getelementptr inbounds i8, ptr %58, i64 %60
  %62 = load i8, ptr %61, align 1, !tbaa !37
  %63 = load ptr, ptr %8, align 8, !tbaa !69
  %64 = getelementptr inbounds nuw i8, ptr %63, i32 1
  store ptr %64, ptr %8, align 8, !tbaa !69
  store i8 %62, ptr %63, align 1, !tbaa !37
  %65 = load ptr, ptr %13, align 8, !tbaa !69
  %66 = load i32, ptr %9, align 4, !tbaa !68
  %67 = sext i32 %66 to i64
  %68 = getelementptr inbounds i8, ptr %65, i64 %67
  %69 = load i8, ptr %68, align 1, !tbaa !37
  %70 = load ptr, ptr %8, align 8, !tbaa !69
  %71 = getelementptr inbounds nuw i8, ptr %70, i32 1
  store ptr %71, ptr %8, align 8, !tbaa !69
  store i8 %69, ptr %70, align 1, !tbaa !37
  br label %72

72:                                               ; preds = %46
  %73 = load i32, ptr %14, align 4, !tbaa !68
  %74 = add i32 %73, -1
  store i32 %74, ptr %14, align 4, !tbaa !68
  br label %43, !llvm.loop !75

75:                                               ; preds = %43
  %76 = load ptr, ptr %7, align 8, !tbaa !42
  %77 = getelementptr inbounds nuw %struct.ppm_dest_struct, ptr %76, i32 0, i32 1
  %78 = load ptr, ptr %77, align 8, !tbaa !51
  %79 = load ptr, ptr %7, align 8, !tbaa !42
  %80 = getelementptr inbounds nuw %struct.ppm_dest_struct, ptr %79, i32 0, i32 3
  %81 = load i64, ptr %80, align 8, !tbaa !50
  %82 = load ptr, ptr %7, align 8, !tbaa !42
  %83 = getelementptr inbounds nuw %struct.ppm_dest_struct, ptr %82, i32 0, i32 0
  %84 = getelementptr inbounds nuw %struct.djpeg_dest_struct, ptr %83, i32 0, i32 4
  %85 = load ptr, ptr %84, align 8, !tbaa !63
  %86 = call i64 @fwrite(ptr noundef %78, i64 noundef 1, i64 noundef %81, ptr noundef %85)
  call void @llvm.lifetime.end.p0(i64 4, ptr %14) #6
  call void @llvm.lifetime.end.p0(i64 8, ptr %13) #6
  call void @llvm.lifetime.end.p0(i64 8, ptr %12) #6
  call void @llvm.lifetime.end.p0(i64 8, ptr %11) #6
  call void @llvm.lifetime.end.p0(i64 8, ptr %10) #6
  call void @llvm.lifetime.end.p0(i64 4, ptr %9) #6
  call void @llvm.lifetime.end.p0(i64 8, ptr %8) #6
  call void @llvm.lifetime.end.p0(i64 8, ptr %7) #6
  ret void
}