; Function Attrs: nofree nounwind uwtable
define internal void @put_demapped_rgb(ptr noundef readonly captures(none) %0, ptr noundef readonly captures(none) %1, i32 %2) #3 {
  %4 = getelementptr inbounds nuw i8, ptr %0, i64 160
  %5 = load ptr, ptr %4, align 8, !tbaa !68
  %6 = load ptr, ptr %5, align 8, !tbaa !63
  %7 = getelementptr inbounds nuw i8, ptr %5, i64 8
  %8 = load ptr, ptr %7, align 8, !tbaa !63
  %9 = getelementptr inbounds nuw i8, ptr %5, i64 16
  %10 = load ptr, ptr %9, align 8, !tbaa !63
  %11 = getelementptr inbounds nuw i8, ptr %1, i64 72
  %12 = load ptr, ptr %11, align 8, !tbaa !48
  %13 = getelementptr inbounds nuw i8, ptr %0, i64 136
  %14 = load i32, ptr %13, align 8, !tbaa !52
  %.not23 = icmp eq i32 %14, 0
  br i1 %.not23, label %._crit_edge, label %.lr.ph.preheader

.lr.ph.preheader:                                 ; preds = %3
  %15 = getelementptr inbounds nuw i8, ptr %1, i64 40
  %16 = load ptr, ptr %15, align 8, !tbaa !54
  %17 = load ptr, ptr %16, align 8, !tbaa !63
  br label %.lr.ph

.lr.ph:                                           ; preds = %.lr.ph.preheader, %.lr.ph
  %.026 = phi i32 [ %30, %.lr.ph ], [ %14, %.lr.ph.preheader ]
  %.02125 = phi ptr [ %29, %.lr.ph ], [ %12, %.lr.ph.preheader ]
  %.02224 = phi ptr [ %18, %.lr.ph ], [ %17, %.lr.ph.preheader ]
  %18 = getelementptr inbounds nuw i8, ptr %.02224, i64 1
  %19 = load i8, ptr %.02224, align 1, !tbaa !35
  %20 = zext i8 %19 to i64
  %21 = getelementptr inbounds nuw i8, ptr %6, i64 %20
  %22 = load i8, ptr %21, align 1, !tbaa !35
  %23 = getelementptr inbounds nuw i8, ptr %.02125, i64 1
  store i8 %22, ptr %.02125, align 1, !tbaa !35
  %24 = getelementptr inbounds nuw i8, ptr %8, i64 %20
  %25 = load i8, ptr %24, align 1, !tbaa !35
  %26 = getelementptr inbounds nuw i8, ptr %.02125, i64 2
  store i8 %25, ptr %23, align 1, !tbaa !35
  %27 = getelementptr inbounds nuw i8, ptr %10, i64 %20
  %28 = load i8, ptr %27, align 1, !tbaa !35
  %29 = getelementptr inbounds nuw i8, ptr %.02125, i64 3
  store i8 %28, ptr %26, align 1, !tbaa !35
  %30 = add i32 %.026, -1
  %.not = icmp eq i32 %30, 0
  br i1 %.not, label %._crit_edge.loopexit, label %.lr.ph, !llvm.loop !70

._crit_edge.loopexit:                             ; preds = %.lr.ph
  %.pre = load ptr, ptr %11, align 8, !tbaa !48
  br label %._crit_edge

._crit_edge:                                      ; preds = %._crit_edge.loopexit, %3
  %31 = phi ptr [ %.pre, %._crit_edge.loopexit ], [ %12, %3 ]
  %32 = getelementptr inbounds nuw i8, ptr %1, i64 88
  %33 = load i64, ptr %32, align 8, !tbaa !47
  %34 = getelementptr inbounds nuw i8, ptr %1, i64 32
  %35 = load ptr, ptr %34, align 8, !tbaa !58
  %36 = tail call i64 @fwrite(ptr noundef %31, i64 noundef 1, i64 noundef %33, ptr noundef %35)
  ret void
}